target datalayout = "e-m:e-p270:32:32-p271:32:32-p272:64:64-i64:64-i128:128-f80:128-n8:16:32:64-S128"
target triple = "x86_64-unknown-linux-gnu"

%"class.grpc_event_engine::experimental::WakeupFd" = type { ptr, i32, i32 }

; Function Attrs: mustprogress nounwind uwtable
define linkonce_odr void @_ZN17grpc_event_engine12experimental8WakeupFdD2Ev(ptr noundef nonnull align 8 dereferenceable(16) %this) unnamed_addr #6 comdat align 2 {
entry:
  %this.addr = alloca ptr, align 8
  store ptr %this, ptr %this.addr, align 8
  ret void
}

; Function Attrs: mustprogress nounwind uwtable
define linkonce_odr noundef i32 @_ZN17grpc_event_engine12experimental8WakeupFd7WriteFdEv(ptr noundef nonnull align 8 dereferenceable(16) %this) #6 comdat align 2 {
entry:
  %this.addr = alloca ptr, align 8
  store ptr %this, ptr %this.addr, align 8
  %this1 = load ptr, ptr %this.addr, align 8
  %write_fd_ = getelementptr inbounds %"class.grpc_event_engine::experimental::WakeupFd", ptr %this1, i32 0, i32 2
  %0 = load i32, ptr %write_fd_, align 4
  ret i32 %0
}

; Function Attrs: mustprogress nounwind uwtable
define linkonce_odr noundef i32 @_ZN17grpc_event_engine12experimental8WakeupFd6ReadFdEv(ptr noundef nonnull align 8 dereferenceable(16) %this) #6 comdat align 2 {
entry:
  %this.addr = alloca ptr, align 8
  store ptr %this, ptr %this.addr, align 8
  %this1 = load ptr, ptr %this.addr, align 8
  %read_fd_ = getelementptr inbounds %"class.grpc_event_engine::experimental::WakeupFd", ptr %this1, i32 0, i32 1
  %0 = load i32, ptr %read_fd_, align 8
  ret i32 %0
}

; Function Attrs: mustprogress nounwind uwtable
define void @_ZN17grpc_event_engine12experimental12PipeWakeupFdD2Ev(ptr noundef nonnull align 8 dereferenceable(16) %this) unnamed_addr #6 align 2 personality ptr @__gxx_personality_v0 {
entry:
  %this.addr = alloca ptr, align 8
  store ptr %this, ptr %this.addr, align 8
  %this1 = load ptr, ptr %this.addr, align 8
  store ptr getelementptr inbounds ({ [6 x ptr] }, ptr @_ZTVN17grpc_event_engine12experimental12PipeWakeupFdE, i32 0, i32 0, i32 2), ptr %this1, align 8
  %call = invoke noundef i32 @_ZN17grpc_event_engine12experimental8WakeupFd6ReadFdEv(ptr noundef nonnull align 8 dereferenceable(16) %this1)
          to label %invoke.cont unwind label %terminate.lpad

invoke.cont:                                      ; preds = %entry
  %cmp = icmp ne i32 %call, 0
  br i1 %cmp, label %if.then, label %if.end

if.then:                                          ; preds = %invoke.cont
  %call3 = invoke noundef i32 @_ZN17grpc_event_engine12experimental8WakeupFd6ReadFdEv(ptr noundef nonnull align 8 dereferenceable(16) %this1)
          to label %invoke.cont2 unwind label %terminate.lpad

invoke.cont2:                                     ; preds = %if.then
  %call5 = invoke i32 @close(i32 noundef %call3)
          to label %invoke.cont4 unwind label %terminate.lpad

invoke.cont4:                                     ; preds = %invoke.cont2
  br label %if.end

if.end:                                           ; preds = %invoke.cont4, %invoke.cont
  %call7 = invoke noundef i32 @_ZN17grpc_event_engine12experimental8WakeupFd7WriteFdEv(ptr noundef nonnull align 8 dereferenceable(16) %this1)
          to label %invoke.cont6 unwind label %terminate.lpad

invoke.cont6:                                     ; preds = %if.end
  %cmp8 = icmp ne i32 %call7, 0
  br i1 %cmp8, label %if.then9, label %if.end14

if.then9:                                         ; preds = %invoke.cont6
  %call11 = invoke noundef i32 @_ZN17grpc_event_engine12experimental8WakeupFd7WriteFdEv(ptr noundef nonnull align 8 dereferenceable(16) %this1)
          to label %invoke.cont10 unwind label %terminate.lpad

invoke.cont10:                                    ; preds = %if.then9
  %call13 = invoke i32 @close(i32 noundef %call11)
          to label %invoke.cont12 unwind label %terminate.lpad

invoke.cont12:                                    ; preds = %invoke.cont10
  br label %if.end14

if.end14:                                         ; preds = %invoke.cont12, %invoke.cont6
  call void @_ZN17grpc_event_engine12experimental8WakeupFdD2Ev(ptr noundef nonnull align 8 dereferenceable(16) %this1) #3
  ret void

terminate.lpad:                                   ; preds = %invoke.cont10, %if.then9, %if.end, %invoke.cont2, %if.then, %entry
  %0 = landingpad { ptr, i32 }
          catch ptr null
  %1 = extractvalue { ptr, i32 } %0, 0
  call void @__clang_call_terminate(ptr %1) #13
  unreachable
}