; Function Attrs: mustprogress nounwind uwtable
define void @_ZN17grpc_event_engine12experimental12PipeWakeupFdD2Ev(ptr nocapture noundef nonnull align 8 dereferenceable(16) %this) unnamed_addr #5 align 2 personality ptr @__gxx_personality_v0 {
entry:
  store ptr getelementptr inbounds ({ [6 x ptr] }, ptr @_ZTVN17grpc_event_engine12experimental12PipeWakeupFdE, i64 0, i32 0, i64 2), ptr %this, align 8
  %read_fd_.i = getelementptr inbounds i8, ptr %this, i64 8
  %0 = load i32, ptr %read_fd_.i, align 8
  %cmp.not = icmp eq i32 %0, 0
  br i1 %cmp.not, label %if.end, label %if.then

if.then:                                          ; preds = %entry
  %call5 = invoke i32 @close(i32 noundef %0)
          to label %if.end unwind label %terminate.lpad

if.end:                                           ; preds = %if.then, %entry
  %write_fd_.i = getelementptr inbounds i8, ptr %this, i64 12
  %1 = load i32, ptr %write_fd_.i, align 4
  %cmp8.not = icmp eq i32 %1, 0
  br i1 %cmp8.not, label %if.end14, label %if.then9

if.then9:                                         ; preds = %if.end
  %call13 = invoke i32 @close(i32 noundef %1)
          to label %if.end14 unwind label %terminate.lpad

if.end14:                                         ; preds = %if.then9, %if.end
  ret void

terminate.lpad:                                   ; preds = %if.then9, %if.then
  %2 = landingpad { ptr, i32 }
          catch ptr null
  %3 = extractvalue { ptr, i32 } %2, 0
  tail call void @__clang_call_terminate(ptr %3) #14
  unreachable
}